target datalayout = "e-m:e-p270:32:32-p271:32:32-p272:64:64-i64:64-i128:128-f80:128-n8:16:32:64-S128"
target triple = "x86_64-pc-linux-gnu"

%"class.ODDLParser::OpenDDLParser" = type { %"class.std::function", %"class.std::vector", %"class.std::vector.0", ptr }
%"class.std::function" = type { %"class.std::_Function_base", ptr }
%"class.std::_Function_base" = type { %"union.std::_Any_data", ptr }
%"union.std::_Any_data" = type { %"union.std::_Nocopy_types" }
%"union.std::_Nocopy_types" = type { { i64, i64 } }
%"class.std::vector" = type { %"struct.std::_Vector_base" }
%"struct.std::_Vector_base" = type { %"struct.std::_Vector_base<char, std::allocator<char>>::_Vector_impl" }
%"struct.std::_Vector_base<char, std::allocator<char>>::_Vector_impl" = type { %"struct.std::_Vector_base<char, std::allocator<char>>::_Vector_impl_data" }
%"struct.std::_Vector_base<char, std::allocator<char>>::_Vector_impl_data" = type { ptr, ptr, ptr }
%"class.std::vector.0" = type { %"struct.std::_Vector_base.1" }
%"struct.std::_Vector_base.1" = type { %"struct.std::_Vector_base<ODDLParser::DDLNode *, std::allocator<ODDLParser::DDLNode *>>::_Vector_impl" }
%"struct.std::_Vector_base<ODDLParser::DDLNode *, std::allocator<ODDLParser::DDLNode *>>::_Vector_impl" = type { %"struct.std::_Vector_base<ODDLParser::DDLNode *, std::allocator<ODDLParser::DDLNode *>>::_Vector_impl_data" }
%"struct.std::_Vector_base<ODDLParser::DDLNode *, std::allocator<ODDLParser::DDLNode *>>::_Vector_impl_data" = type { ptr, ptr, ptr }
%"struct.ODDLParser::Context" = type { ptr }

; Function Attrs: mustprogress nounwind uwtable
define hidden noundef ptr @_ZNK10ODDLParser13OpenDDLParser7getRootEv(ptr noundef nonnull align 8 dereferenceable(88) %0) #4 align 2 {
  %2 = alloca ptr, align 8
  %3 = alloca ptr, align 8
  store ptr %0, ptr %3, align 8
  %4 = load ptr, ptr %3, align 8
  %5 = getelementptr inbounds nuw %"class.ODDLParser::OpenDDLParser", ptr %4, i32 0, i32 3
  %6 = load ptr, ptr %5, align 8
  %7 = icmp eq ptr null, %6
  br i1 %7, label %8, label %9

8:                                                ; preds = %1
  store ptr null, ptr %2, align 8
  br label %14

9:                                                ; preds = %1
  %10 = getelementptr inbounds nuw %"class.ODDLParser::OpenDDLParser", ptr %4, i32 0, i32 3
  %11 = load ptr, ptr %10, align 8
  %12 = getelementptr inbounds nuw %"struct.ODDLParser::Context", ptr %11, i32 0, i32 0
  %13 = load ptr, ptr %12, align 8
  store ptr %13, ptr %2, align 8
  br label %14

14:                                               ; preds = %9, %8
  %15 = load ptr, ptr %2, align 8
  ret ptr %15
}